; Function Attrs: mustprogress uwtable
define hidden void @_ZN4cvc58internal6theory9datatypes15TheoryDatatypes17getEqcConstructorENS0_12NodeTemplateILb0EEE(ptr dead_on_unwind noalias writable writeonly sret(%"class.cvc5::internal::NodeTemplate.748") align 8 captures(none) %0, ptr noundef nonnull align 8 dereferenceable(2000) %1, ptr noundef readonly captures(none) %2) local_unnamed_addr #3 align 2 personality ptr @__gxx_personality_v0 {
  %4 = alloca %"class.cvc5::internal::NodeTemplate.748", align 8
  %5 = load ptr, ptr %2, align 8, !tbaa !358
  %6 = getelementptr inbounds nuw i8, ptr %5, i64 8
  %7 = load i64, ptr %6, align 8
  %8 = and i64 %7, 1023
  %9 = icmp eq i64 %8, 224
  br i1 %9, label %30, label %10

10:                                               ; preds = %3
  store ptr %5, ptr %4, align 8, !tbaa !358
  %11 = call noundef ptr @_ZN4cvc58internal6theory9datatypes15TheoryDatatypes16getOrMakeEqcInfoENS0_12NodeTemplateILb0EEEb(ptr noundef nonnull align 8 dereferenceable(2000) %1, ptr noundef nonnull %4, i1 noundef zeroext false)
  %.not = icmp eq ptr %11, null
  br i1 %.not, label %28, label %12

12:                                               ; preds = %10
  %13 = getelementptr inbounds nuw i8, ptr %11, i64 88
  %14 = load ptr, ptr %13, align 8, !tbaa !53
  %15 = load atomic i8, ptr @_ZGVZN4cvc58internal4expr9NodeValue4nullEvE6s_null acquire, align 8
  %16 = icmp eq i8 %15, 0
  br i1 %16, label %17, label %_ZNK4cvc58internal12NodeTemplateILb1EE6isNullEv.exit, !prof !50

17:                                               ; preds = %12
  %18 = tail call i32 @__cxa_guard_acquire(ptr nonnull @_ZGVZN4cvc58internal4expr9NodeValue4nullEvE6s_null) #26
  %.not.i.i = icmp eq i32 %18, 0
  br i1 %.not.i.i, label %_ZNK4cvc58internal12NodeTemplateILb1EE6isNullEv.exit, label %19

19:                                               ; preds = %17
  %20 = invoke noalias noundef nonnull dereferenceable(24) ptr @_Znwm(i64 noundef 24) #27
          to label %21 unwind label %common.resume

21:                                               ; preds = %19
  store i64 1152920405095219200, ptr %20, align 8
  %22 = getelementptr inbounds nuw i8, ptr %20, i64 8
  tail call void @llvm.memset.p0.i64(ptr noundef nonnull align 8 dereferenceable(16) %22, i8 0, i64 16, i1 false)
  store ptr %20, ptr @_ZZN4cvc58internal4expr9NodeValue4nullEvE6s_null, align 8, !tbaa !51
  tail call void @__cxa_guard_release(ptr nonnull @_ZGVZN4cvc58internal4expr9NodeValue4nullEvE6s_null) #26
  br label %_ZNK4cvc58internal12NodeTemplateILb1EE6isNullEv.exit

common.resume:                                    ; preds = %19
  %23 = landingpad { ptr, i32 }
          cleanup
  tail call void @__cxa_guard_abort(ptr nonnull @_ZGVZN4cvc58internal4expr9NodeValue4nullEvE6s_null) #26
  resume { ptr, i32 } %23

_ZNK4cvc58internal12NodeTemplateILb1EE6isNullEv.exit: ; preds = %12, %17, %21
  %24 = load ptr, ptr @_ZZN4cvc58internal4expr9NodeValue4nullEvE6s_null, align 8, !tbaa !51
  %25 = icmp eq ptr %14, %24
  br i1 %25, label %28, label %26

26:                                               ; preds = %_ZNK4cvc58internal12NodeTemplateILb1EE6isNullEv.exit
  %27 = load ptr, ptr %13, align 8, !tbaa !53
  br label %30

28:                                               ; preds = %_ZNK4cvc58internal12NodeTemplateILb1EE6isNullEv.exit, %10
  %29 = load ptr, ptr %2, align 8, !tbaa !358
  br label %30

30:                                               ; preds = %3, %26, %28
  %.sink = phi ptr [ %27, %26 ], [ %29, %28 ], [ %5, %3 ]
  store ptr %.sink, ptr %0, align 8, !tbaa !358
  ret void
}